target datalayout = "e-m:e-p270:32:32-p271:32:32-p272:64:64-i64:64-i128:128-f80:128-n8:16:32:64-S128"
target triple = "x86_64-pc-linux-gnu"

%struct._packet_info = type { ptr, ptr, i32, i32, %struct.nstime_t, %struct.nstime_t, %struct.nstime_t, i8, ptr, ptr, ptr, ptr, %struct._address, %struct._address, %struct._address, %struct._address, %struct._address, %struct._address, i32, ptr, i8, [3 x i8], %struct.anon, i32, i32, i32, i32, ptr, i8, ptr, ptr, i16, i16, i32, i32, i16, i32, i32, ptr, ptr, ptr, i8, i8, i16, i16, i16, i32, i16, i16, ptr, ptr, ptr, ptr, ptr, i32, i32 }
%struct.nstime_t = type { i64, i32 }
%struct._address = type { i32, i32, ptr, ptr }
%struct.anon = type { i8, [3 x i8] }

@hf_x11_reply = internal global i32 0, align 4
@hf_x11_reply_sequencenumber = internal global i32 0, align 4
@hf_x11_replylength = internal global i32 0, align 4
@hf_x11_unused = internal global i32 0, align 4
@hf_x11_xselinux_GetWindowCreateContext_reply_context_len = internal global i32 0, align 4
@hf_x11_xselinux_GetWindowCreateContext_reply_context = internal global i32 0, align 4
@.str.15578 = private unnamed_addr constant [24 x i8] c"-GetWindowCreateContext\00", align 1
@.str.15579 = private unnamed_addr constant [37 x i8] c"%d (xselinux-GetWindowCreateContext)\00", align 1

; Function Attrs: null_pointer_is_valid sspstrong uwtable
define internal void @listOfByte(ptr noundef %0, ptr noundef %1, ptr noundef %2, i32 noundef %3, i32 noundef %4, i32 noundef %5) #1 {
  %7 = alloca ptr, align 8
  %8 = alloca ptr, align 8
  %9 = alloca ptr, align 8
  %10 = alloca i32, align 4
  %11 = alloca i32, align 4
  %12 = alloca i32, align 4
  store ptr %0, ptr %7, align 8
  store ptr %1, ptr %8, align 8
  store ptr %2, ptr %9, align 8
  store i32 %3, ptr %10, align 4
  store i32 %4, ptr %11, align 4
  store i32 %5, ptr %12, align 4
  %13 = load i32, ptr %11, align 4
  %14 = icmp sle i32 %13, 0
  br i1 %14, label %15, label %16

15:                                               ; preds = %6
  store i32 1, ptr %11, align 4
  br label %16

16:                                               ; preds = %15, %6
  %17 = load ptr, ptr %9, align 8
  %18 = load i32, ptr %10, align 4
  %19 = load ptr, ptr %7, align 8
  %20 = load ptr, ptr %8, align 8
  %21 = load i32, ptr %20, align 4
  %22 = load i32, ptr %11, align 4
  %23 = load i32, ptr %12, align 4
  %24 = call ptr @proto_tree_add_item(ptr noundef %17, i32 noundef %18, ptr noundef %19, i32 noundef %21, i32 noundef %22, i32 noundef %23)
  %25 = load i32, ptr %11, align 4
  %26 = load ptr, ptr %8, align 8
  %27 = load i32, ptr %26, align 4
  %28 = add i32 %27, %25
  store i32 %28, ptr %26, align 4
  ret void
}

; Function Attrs: null_pointer_is_valid sspstrong uwtable
define internal void @xselinuxGetWindowCreateContext_Reply(ptr noundef %0, ptr noundef %1, ptr noundef %2, ptr noundef %3, i32 noundef %4) #1 {
  %6 = alloca ptr, align 8
  %7 = alloca ptr, align 8
  %8 = alloca ptr, align 8
  %9 = alloca ptr, align 8
  %10 = alloca i32, align 4
  %11 = alloca i32, align 4
  %12 = alloca i32, align 4
  store ptr %0, ptr %6, align 8
  store ptr %1, ptr %7, align 8
  store ptr %2, ptr %8, align 8
  store ptr %3, ptr %9, align 8
  store i32 %4, ptr %10, align 4
  call void @llvm.lifetime.start.p0(i64 4, ptr %11) #11
  call void @llvm.lifetime.start.p0(i64 4, ptr %12) #11
  %13 = load ptr, ptr %7, align 8
  %14 = getelementptr inbounds nuw %struct._packet_info, ptr %13, i32 0, i32 1
  %15 = load ptr, ptr %14, align 8
  call void (ptr, i32, ptr, ...) @col_append_fstr(ptr noundef %15, i32 noundef 25, ptr noundef @.str.15578)
  %16 = load ptr, ptr %6, align 8
  %17 = load ptr, ptr %8, align 8
  %18 = load ptr, ptr %9, align 8
  %19 = load i32, ptr @hf_x11_reply, align 4
  %20 = load i32, ptr %10, align 4
  %21 = call i32 @field8(ptr noundef %16, ptr noundef %17, ptr noundef %18, i32 noundef %19, i32 noundef %20)
  %22 = load ptr, ptr %9, align 8
  %23 = load i32, ptr @hf_x11_unused, align 4
  %24 = load ptr, ptr %6, align 8
  %25 = load ptr, ptr %8, align 8
  %26 = load i32, ptr %25, align 4
  %27 = call ptr @proto_tree_add_item(ptr noundef %22, i32 noundef %23, ptr noundef %24, i32 noundef %26, i32 noundef 1, i32 noundef 0)
  %28 = load ptr, ptr %8, align 8
  %29 = load i32, ptr %28, align 4
  %30 = add i32 %29, 1
  store i32 %30, ptr %28, align 4
  %31 = load ptr, ptr %6, align 8
  %32 = load ptr, ptr %8, align 8
  %33 = load i32, ptr %32, align 4
  %34 = load i32, ptr %10, align 4
  %35 = call zeroext i16 @tvb_get_uint16(ptr noundef %31, i32 noundef %33, i32 noundef %34)
  %36 = zext i16 %35 to i32
  store i32 %36, ptr %11, align 4
  %37 = load ptr, ptr %9, align 8
  %38 = load i32, ptr @hf_x11_reply_sequencenumber, align 4
  %39 = load ptr, ptr %6, align 8
  %40 = load ptr, ptr %8, align 8
  %41 = load i32, ptr %40, align 4
  %42 = load i32, ptr %11, align 4
  %43 = load i32, ptr %11, align 4
  %44 = call ptr (ptr, i32, ptr, i32, i32, i32, ptr, ...) @proto_tree_add_uint_format_value(ptr noundef %37, i32 noundef %38, ptr noundef %39, i32 noundef %41, i32 noundef 2, i32 noundef %42, ptr noundef @.str.15579, i32 noundef %43)
  %45 = load ptr, ptr %8, align 8
  %46 = load i32, ptr %45, align 4
  %47 = add i32 %46, 2
  store i32 %47, ptr %45, align 4
  %48 = load ptr, ptr %9, align 8
  %49 = load i32, ptr @hf_x11_replylength, align 4
  %50 = load ptr, ptr %6, align 8
  %51 = load ptr, ptr %8, align 8
  %52 = load i32, ptr %51, align 4
  %53 = load i32, ptr %10, align 4
  %54 = call ptr @proto_tree_add_item(ptr noundef %48, i32 noundef %49, ptr noundef %50, i32 noundef %52, i32 noundef 4, i32 noundef %53)
  %55 = load ptr, ptr %8, align 8
  %56 = load i32, ptr %55, align 4
  %57 = add i32 %56, 4
  store i32 %57, ptr %55, align 4
  %58 = load ptr, ptr %6, align 8
  %59 = load ptr, ptr %8, align 8
  %60 = load i32, ptr %59, align 4
  %61 = load i32, ptr %10, align 4
  %62 = call i32 @tvb_get_uint32(ptr noundef %58, i32 noundef %60, i32 noundef %61)
  store i32 %62, ptr %12, align 4
  %63 = load ptr, ptr %9, align 8
  %64 = load i32, ptr @hf_x11_xselinux_GetWindowCreateContext_reply_context_len, align 4
  %65 = load ptr, ptr %6, align 8
  %66 = load ptr, ptr %8, align 8
  %67 = load i32, ptr %66, align 4
  %68 = load i32, ptr %10, align 4
  %69 = call ptr @proto_tree_add_item(ptr noundef %63, i32 noundef %64, ptr noundef %65, i32 noundef %67, i32 noundef 4, i32 noundef %68)
  %70 = load ptr, ptr %8, align 8
  %71 = load i32, ptr %70, align 4
  %72 = add i32 %71, 4
  store i32 %72, ptr %70, align 4
  %73 = load ptr, ptr %9, align 8
  %74 = load i32, ptr @hf_x11_unused, align 4
  %75 = load ptr, ptr %6, align 8
  %76 = load ptr, ptr %8, align 8
  %77 = load i32, ptr %76, align 4
  %78 = call ptr @proto_tree_add_item(ptr noundef %73, i32 noundef %74, ptr noundef %75, i32 noundef %77, i32 noundef 20, i32 noundef 0)
  %79 = load ptr, ptr %8, align 8
  %80 = load i32, ptr %79, align 4
  %81 = add i32 %80, 20
  store i32 %81, ptr %79, align 4
  %82 = load ptr, ptr %6, align 8
  %83 = load ptr, ptr %8, align 8
  %84 = load ptr, ptr %9, align 8
  %85 = load i32, ptr @hf_x11_xselinux_GetWindowCreateContext_reply_context, align 4
  %86 = load i32, ptr %12, align 4
  %87 = load i32, ptr %10, align 4
  call void @listOfByte(ptr noundef %82, ptr noundef %83, ptr noundef %84, i32 noundef %85, i32 noundef %86, i32 noundef %87)
  call void @llvm.lifetime.end.p0(i64 4, ptr %12) #11
  call void @llvm.lifetime.end.p0(i64 4, ptr %11) #11
  ret void
}