; Function Attrs: null_pointer_is_valid sspstrong uwtable
define internal void @xselinuxGetWindowCreateContext_Reply(ptr noundef %0, ptr noundef readonly captures(none) %1, ptr noundef captures(none) %2, ptr noundef %3, i32 noundef %4) #1 {
  %6 = getelementptr inbounds nuw i8, ptr %1, i64 8
  %7 = load ptr, ptr %6, align 8
  tail call void (ptr, i32, ptr, ...) @col_append_fstr(ptr noundef %7, i32 noundef 25, ptr noundef nonnull @.str.15578)
  %8 = load i32, ptr @hf_x11_reply, align 4
  %9 = tail call fastcc i32 @field8(ptr noundef %0, ptr noundef %2, ptr noundef %3, i32 noundef %8, i32 noundef %4)
  %10 = load i32, ptr @hf_x11_unused, align 4
  %11 = load i32, ptr %2, align 4
  %12 = tail call ptr @proto_tree_add_item(ptr noundef %3, i32 noundef %10, ptr noundef %0, i32 noundef %11, i32 noundef 1, i32 noundef 0)
  %13 = load i32, ptr %2, align 4
  %14 = add i32 %13, 1
  store i32 %14, ptr %2, align 4
  %15 = tail call zeroext i16 @tvb_get_uint16(ptr noundef %0, i32 noundef %14, i32 noundef %4)
  %16 = zext i16 %15 to i32
  %17 = load i32, ptr @hf_x11_reply_sequencenumber, align 4
  %18 = load i32, ptr %2, align 4
  %19 = tail call ptr (ptr, i32, ptr, i32, i32, i32, ptr, ...) @proto_tree_add_uint_format_value(ptr noundef %3, i32 noundef %17, ptr noundef %0, i32 noundef %18, i32 noundef 2, i32 noundef %16, ptr noundef nonnull @.str.15579, i32 noundef %16)
  %20 = load i32, ptr %2, align 4
  %21 = add i32 %20, 2
  store i32 %21, ptr %2, align 4
  %22 = load i32, ptr @hf_x11_replylength, align 4
  %23 = tail call ptr @proto_tree_add_item(ptr noundef %3, i32 noundef %22, ptr noundef %0, i32 noundef %21, i32 noundef 4, i32 noundef %4)
  %24 = load i32, ptr %2, align 4
  %25 = add i32 %24, 4
  store i32 %25, ptr %2, align 4
  %26 = tail call i32 @tvb_get_uint32(ptr noundef %0, i32 noundef %25, i32 noundef %4)
  %27 = load i32, ptr @hf_x11_xselinux_GetWindowCreateContext_reply_context_len, align 4
  %28 = load i32, ptr %2, align 4
  %29 = tail call ptr @proto_tree_add_item(ptr noundef %3, i32 noundef %27, ptr noundef %0, i32 noundef %28, i32 noundef 4, i32 noundef %4)
  %30 = load i32, ptr %2, align 4
  %31 = add i32 %30, 4
  store i32 %31, ptr %2, align 4
  %32 = load i32, ptr @hf_x11_unused, align 4
  %33 = tail call ptr @proto_tree_add_item(ptr noundef %3, i32 noundef %32, ptr noundef %0, i32 noundef %31, i32 noundef 20, i32 noundef 0)
  %34 = load i32, ptr %2, align 4
  %35 = add i32 %34, 20
  store i32 %35, ptr %2, align 4
  %36 = load i32, ptr @hf_x11_xselinux_GetWindowCreateContext_reply_context, align 4
  %spec.store.select.i = tail call i32 @llvm.smax.i32(i32 %26, i32 1)
  %37 = tail call ptr @proto_tree_add_item(ptr noundef %3, i32 noundef %36, ptr noundef %0, i32 noundef %35, i32 noundef %spec.store.select.i, i32 noundef %4)
  %38 = load i32, ptr %2, align 4
  %39 = add i32 %38, %spec.store.select.i
  store i32 %39, ptr %2, align 4
  ret void
}